target datalayout = "e-m:e-p270:32:32-p271:32:32-p272:64:64-i64:64-i128:128-f80:128-n8:16:32:64-S128"
target triple = "x86_64-pc-linux-gnu"

%struct.darktable_t = type { %struct.dt_codepath_t, i32, i32, ptr, ptr, ptr, ptr, ptr, ptr, ptr, ptr, ptr, ptr, ptr, ptr, ptr, ptr, ptr, ptr, ptr, ptr, ptr, ptr, ptr, ptr, ptr, ptr, ptr, ptr, ptr, [64 x %struct.dt_pthread_mutex_t], %struct.dt_pthread_mutex_t, %struct.dt_pthread_mutex_t, %struct.dt_pthread_mutex_t, %struct.dt_pthread_mutex_t, %struct.dt_pthread_mutex_t, ptr, ptr, ptr, ptr, ptr, ptr, ptr, ptr, ptr, ptr, ptr, ptr, ptr, %struct.dt_lua_state_t, ptr, double, ptr, i32, [47 x i32], i32, i32, ptr, ptr, %struct.dt_sys_resources_t, %struct.dt_backthumb_t, %struct.dt_gimp_t }
%struct.dt_codepath_t = type { i8, [3 x i8] }
%struct.dt_pthread_mutex_t = type { %union.pthread_mutex_t }
%union.pthread_mutex_t = type { %struct.__pthread_mutex_s }
%struct.__pthread_mutex_s = type { i32, i32, i32, i32, i32, i16, i16, %struct.__pthread_internal_list }
%struct.__pthread_internal_list = type { ptr, ptr }
%struct.dt_lua_state_t = type { i32 }
%struct.dt_sys_resources_t = type { i64, i64, ptr, ptr, i32 }
%struct.dt_backthumb_t = type { double, double, i32, i32, i32, i32 }
%struct.dt_gimp_t = type { i32, ptr, ptr, i32, i32 }
%struct.dt_lib_module_t = type { %struct.dt_action_t, ptr, ptr, ptr, ptr, ptr, ptr, ptr, ptr, ptr, ptr, ptr, ptr, ptr, ptr, ptr, ptr, ptr, ptr, ptr, ptr, ptr, ptr, ptr, ptr, ptr, ptr, ptr, ptr, ptr, ptr, [128 x i8], ptr, ptr, i32, ptr, ptr, ptr, i32 }
%struct.dt_action_t = type { i32, ptr, ptr, ptr, ptr, ptr }
%struct.dt_view_t = type { %struct.dt_action_t, ptr, ptr, ptr, ptr, ptr, ptr, ptr, ptr, ptr, ptr, ptr, ptr, ptr, ptr, ptr, ptr, ptr, ptr, ptr, ptr, ptr, [64 x i8], ptr, ptr, i32, i32, float, float, float, float, float, float, float, float }
%struct.dt_lib_t = type { ptr, ptr, %struct.anon }
%struct.anon = type { %struct.anon.0, %struct.anon.1, %struct.anon.2, %struct.anon.3 }
%struct.anon.0 = type { ptr, ptr, ptr, ptr, ptr, i32, i32, i32, ptr, ptr, ptr, ptr, ptr }
%struct.anon.1 = type { ptr, ptr, i32 }
%struct.anon.2 = type { ptr }
%struct.anon.3 = type { i32 }

@darktable = external global %struct.darktable_t, align 8
@.str.24 = private unnamed_addr constant [23 x i8] c"plugins/%s/%s/expanded\00", align 1

; Function Attrs: inlinehint nounwind uwtable
define internal ptr @DTGTK_BUTTON(ptr noundef %0) #5 {
  %2 = alloca ptr, align 8
  store ptr %0, ptr %2, align 8, !tbaa !76
  %3 = load ptr, ptr %2, align 8, !tbaa !76
  %4 = call i64 @dtgtk_button_get_type()
  %5 = call ptr @g_type_check_instance_cast(ptr noundef %3, i64 noundef %4)
  ret ptr %5
}

; Function Attrs: inlinehint nounwind uwtable
define internal ptr @DTGTK_EXPANDER(ptr noundef %0) #5 {
  %2 = alloca ptr, align 8
  store ptr %0, ptr %2, align 8, !tbaa !76
  %3 = load ptr, ptr %2, align 8, !tbaa !76
  %4 = call i64 @dtgtk_expander_get_type()
  %5 = call ptr @g_type_check_instance_cast(ptr noundef %3, i64 noundef %4)
  ret ptr %5
}

; Function Attrs: nounwind uwtable
define void @dt_lib_gui_set_expanded(ptr noundef %0, i32 noundef %1) #0 {
  %3 = alloca ptr, align 8
  %4 = alloca i32, align 4
  %5 = alloca i32, align 4
  %6 = alloca [1024 x i8], align 16
  %7 = alloca ptr, align 8
  store ptr %0, ptr %3, align 8, !tbaa !6
  store i32 %1, ptr %4, align 4, !tbaa !62
  %8 = load ptr, ptr %3, align 8, !tbaa !6
  %9 = getelementptr inbounds nuw %struct.dt_lib_module_t, ptr %8, i32 0, i32 33
  %10 = load ptr, ptr %9, align 8, !tbaa !107
  %11 = icmp ne ptr %10, null
  br i1 %11, label %12, label %17

12:                                               ; preds = %2
  %13 = load ptr, ptr %3, align 8, !tbaa !6
  %14 = getelementptr inbounds nuw %struct.dt_lib_module_t, ptr %13, i32 0, i32 35
  %15 = load ptr, ptr %14, align 8, !tbaa !108
  %16 = icmp ne ptr %15, null
  br i1 %16, label %18, label %17

17:                                               ; preds = %12, %2
  br label %53

18:                                               ; preds = %12
  %19 = load ptr, ptr %3, align 8, !tbaa !6
  %20 = getelementptr inbounds nuw %struct.dt_lib_module_t, ptr %19, i32 0, i32 33
  %21 = load ptr, ptr %20, align 8, !tbaa !107
  %22 = call ptr @DTGTK_EXPANDER(ptr noundef %21)
  %23 = load i32, ptr %4, align 4, !tbaa !62
  call void @dtgtk_expander_set_expanded(ptr noundef %22, i32 noundef %23)
  call void @llvm.lifetime.start.p0(i64 4, ptr %5) #12
  %24 = load i32, ptr %4, align 4, !tbaa !62
  %25 = icmp ne i32 %24, 0
  %26 = select i1 %25, i32 2, i32 8
  store i32 %26, ptr %5, align 4, !tbaa !62
  %27 = load ptr, ptr %3, align 8, !tbaa !6
  %28 = getelementptr inbounds nuw %struct.dt_lib_module_t, ptr %27, i32 0, i32 35
  %29 = load ptr, ptr %28, align 8, !tbaa !108
  %30 = call ptr @DTGTK_BUTTON(ptr noundef %29)
  %31 = load i32, ptr %5, align 4, !tbaa !62
  call void @dtgtk_button_set_paint(ptr noundef %30, ptr noundef @dtgtk_cairo_paint_solid_arrow, i32 noundef %31, ptr noundef null)
  %32 = load i32, ptr %4, align 4, !tbaa !62
  %33 = icmp ne i32 %32, 0
  br i1 %33, label %34, label %36

34:                                               ; preds = %18
  %35 = load ptr, ptr %3, align 8, !tbaa !6
  br label %37

36:                                               ; preds = %18
  br label %37

37:                                               ; preds = %36, %34
  %38 = phi ptr [ %35, %34 ], [ null, %36 ]
  %39 = load ptr, ptr getelementptr inbounds nuw (%struct.darktable_t, ptr @darktable, i32 0, i32 10), align 8, !tbaa !79
  %40 = getelementptr inbounds nuw %struct.dt_lib_t, ptr %39, i32 0, i32 1
  store ptr %38, ptr %40, align 8, !tbaa !109
  call void @llvm.lifetime.start.p0(i64 1024, ptr %6) #12
  call void @llvm.lifetime.start.p0(i64 8, ptr %7) #12
  %41 = load ptr, ptr getelementptr inbounds nuw (%struct.darktable_t, ptr @darktable, i32 0, i32 11), align 8, !tbaa !64
  %42 = call ptr @dt_view_manager_get_current_view(ptr noundef %41)
  store ptr %42, ptr %7, align 8, !tbaa !11
  %43 = getelementptr inbounds [1024 x i8], ptr %6, i64 0, i64 0
  %44 = load ptr, ptr %7, align 8, !tbaa !11
  %45 = getelementptr inbounds nuw %struct.dt_view_t, ptr %44, i32 0, i32 22
  %46 = getelementptr inbounds [64 x i8], ptr %45, i64 0, i64 0
  %47 = load ptr, ptr %3, align 8, !tbaa !6
  %48 = getelementptr inbounds nuw %struct.dt_lib_module_t, ptr %47, i32 0, i32 31
  %49 = getelementptr inbounds [128 x i8], ptr %48, i64 0, i64 0
  %50 = call i32 (ptr, i64, ptr, ...) @snprintf(ptr noundef %43, i64 noundef 1024, ptr noundef @.str.24, ptr noundef %46, ptr noundef %49) #12
  %51 = getelementptr inbounds [1024 x i8], ptr %6, i64 0, i64 0
  %52 = load i32, ptr %4, align 4, !tbaa !62
  call void @dt_conf_set_bool(ptr noundef %51, i32 noundef %52)
  call void @llvm.lifetime.end.p0(i64 8, ptr %7) #12
  call void @llvm.lifetime.end.p0(i64 1024, ptr %6) #12
  call void @llvm.lifetime.end.p0(i64 4, ptr %5) #12
  br label %53

53:                                               ; preds = %37, %17
  ret void
}