; Function Attrs: nounwind uwtable
define void @dt_lib_gui_set_expanded(ptr noundef %0, i32 noundef %1) local_unnamed_addr #0 {
  %3 = alloca [1024 x i8], align 16
  %4 = getelementptr inbounds nuw i8, ptr %0, i64 424
  %5 = load ptr, ptr %4, align 8, !tbaa !86
  %.not = icmp eq ptr %5, null
  br i1 %.not, label %24, label %6

6:                                                ; preds = %2
  %7 = getelementptr inbounds nuw i8, ptr %0, i64 440
  %8 = load ptr, ptr %7, align 8, !tbaa !87
  %.not11 = icmp eq ptr %8, null
  br i1 %.not11, label %24, label %9

9:                                                ; preds = %6
  %10 = tail call i64 @dtgtk_expander_get_type() #19
  %11 = tail call ptr @g_type_check_instance_cast(ptr noundef nonnull %5, i64 noundef %10) #19
  tail call void @dtgtk_expander_set_expanded(ptr noundef %11, i32 noundef %1) #19
  %.not12 = icmp eq i32 %1, 0
  %12 = select i1 %.not12, i32 8, i32 2
  %13 = load ptr, ptr %7, align 8, !tbaa !87
  %14 = tail call i64 @dtgtk_button_get_type() #19
  %15 = tail call ptr @g_type_check_instance_cast(ptr noundef %13, i64 noundef %14) #19
  tail call void @dtgtk_button_set_paint(ptr noundef %15, ptr noundef nonnull @dtgtk_cairo_paint_solid_arrow, i32 noundef %12, ptr noundef null) #19
  %16 = select i1 %.not12, ptr null, ptr %0
  %17 = load ptr, ptr getelementptr inbounds nuw (i8, ptr @darktable, i64 72), align 8, !tbaa !71
  %18 = getelementptr inbounds nuw i8, ptr %17, i64 8
  store ptr %16, ptr %18, align 8, !tbaa !88
  call void @llvm.lifetime.start.p0(i64 1024, ptr nonnull %3) #19
  %19 = load ptr, ptr getelementptr inbounds nuw (i8, ptr @darktable, i64 80), align 8, !tbaa !22
  %20 = tail call ptr @dt_view_manager_get_current_view(ptr noundef %19) #19
  %21 = getelementptr inbounds nuw i8, ptr %20, i64 216
  %22 = getelementptr inbounds nuw i8, ptr %0, i64 288
  %23 = call i32 (ptr, i64, ptr, ...) @snprintf(ptr noundef nonnull dereferenceable(1) %3, i64 noundef 1024, ptr noundef nonnull @.str.24, ptr noundef nonnull %21, ptr noundef nonnull %22) #19
  call void @dt_conf_set_bool(ptr noundef nonnull %3, i32 noundef %1) #19
  call void @llvm.lifetime.end.p0(i64 1024, ptr nonnull %3) #19
  br label %24

24:                                               ; preds = %2, %6, %9
  ret void
}